target datalayout = "e-m:e-p270:32:32-p271:32:32-p272:64:64-i64:64-i128:128-f80:128-n8:16:32:64-S128"
target triple = "x86_64-pc-linux-gnu"

%struct.grpc_arg = type { i32, ptr, %"union.(anonymous struct)::grpc_arg_value" }
%"union.(anonymous struct)::grpc_arg_value" = type { %"struct.(anonymous struct)::grpc_arg_value::grpc_arg_pointer" }
%"struct.(anonymous struct)::grpc_arg_value::grpc_arg_pointer" = type { ptr, ptr }
%struct.grpc_channel_args = type { i64, ptr }

; Function Attrs: mustprogress uwtable
define noundef ptr @_Z30grpc_channel_args_copy_and_addPK17grpc_channel_argsPK8grpc_argm(ptr noundef %0, ptr noundef %1, i64 noundef %2) #5 {
  %4 = alloca ptr, align 8
  %5 = alloca ptr, align 8
  %6 = alloca i64, align 8
  store ptr %0, ptr %4, align 8, !tbaa !3
  store ptr %1, ptr %5, align 8, !tbaa !3
  store i64 %2, ptr %6, align 8, !tbaa !23
  %7 = load ptr, ptr %4, align 8, !tbaa !3
  %8 = load ptr, ptr %5, align 8, !tbaa !3
  %9 = load i64, ptr %6, align 8, !tbaa !23
  %10 = call noundef ptr @_Z41grpc_channel_args_copy_and_add_and_removePK17grpc_channel_argsPPKcmPK8grpc_argm(ptr noundef %7, ptr noundef null, i64 noundef 0, ptr noundef %8, i64 noundef %9)
  ret ptr %10
}

; Function Attrs: mustprogress nounwind uwtable
define noundef ptr @_Z22grpc_channel_args_findPK17grpc_channel_argsPKc(ptr noundef %0, ptr noundef %1) #6 {
  %3 = alloca ptr, align 8
  %4 = alloca ptr, align 8
  %5 = alloca ptr, align 8
  %6 = alloca i64, align 8
  %7 = alloca i32, align 4
  store ptr %0, ptr %4, align 8, !tbaa !3
  store ptr %1, ptr %5, align 8, !tbaa !25
  %8 = load ptr, ptr %4, align 8, !tbaa !3
  %9 = icmp ne ptr %8, null
  br i1 %9, label %10, label %42

10:                                               ; preds = %2
  call void @llvm.lifetime.start.p0(i64 8, ptr %6) #3
  store i64 0, ptr %6, align 8, !tbaa !23
  br label %11

11:                                               ; preds = %36, %10
  %12 = load i64, ptr %6, align 8, !tbaa !23
  %13 = load ptr, ptr %4, align 8, !tbaa !3
  %14 = getelementptr inbounds nuw %struct.grpc_channel_args, ptr %13, i32 0, i32 0
  %15 = load i64, ptr %14, align 8, !tbaa !48
  %16 = icmp ult i64 %12, %15
  br i1 %16, label %18, label %17

17:                                               ; preds = %11
  store i32 2, ptr %7, align 4
  br label %39

18:                                               ; preds = %11
  %19 = load ptr, ptr %4, align 8, !tbaa !3
  %20 = getelementptr inbounds nuw %struct.grpc_channel_args, ptr %19, i32 0, i32 1
  %21 = load ptr, ptr %20, align 8, !tbaa !50
  %22 = load i64, ptr %6, align 8, !tbaa !23
  %23 = getelementptr inbounds nuw %struct.grpc_arg, ptr %21, i64 %22
  %24 = getelementptr inbounds nuw %struct.grpc_arg, ptr %23, i32 0, i32 1
  %25 = load ptr, ptr %24, align 8, !tbaa !45
  %26 = load ptr, ptr %5, align 8, !tbaa !25
  %27 = call i32 @strcmp(ptr noundef %25, ptr noundef %26) #26
  %28 = icmp eq i32 %27, 0
  br i1 %28, label %29, label %35

29:                                               ; preds = %18
  %30 = load ptr, ptr %4, align 8, !tbaa !3
  %31 = getelementptr inbounds nuw %struct.grpc_channel_args, ptr %30, i32 0, i32 1
  %32 = load ptr, ptr %31, align 8, !tbaa !50
  %33 = load i64, ptr %6, align 8, !tbaa !23
  %34 = getelementptr inbounds nuw %struct.grpc_arg, ptr %32, i64 %33
  store ptr %34, ptr %3, align 8
  store i32 1, ptr %7, align 4
  br label %39

35:                                               ; preds = %18
  br label %36

36:                                               ; preds = %35
  %37 = load i64, ptr %6, align 8, !tbaa !23
  %38 = add i64 %37, 1
  store i64 %38, ptr %6, align 8, !tbaa !23
  br label %11, !llvm.loop !136

39:                                               ; preds = %29, %17
  call void @llvm.lifetime.end.p0(i64 8, ptr %6) #3
  %40 = load i32, ptr %7, align 4
  switch i32 %40, label %45 [
    i32 2, label %41
    i32 1, label %43
  ]

41:                                               ; preds = %39
  br label %42

42:                                               ; preds = %41, %2
  store ptr null, ptr %3, align 8
  br label %43

43:                                               ; preds = %42, %39
  %44 = load ptr, ptr %3, align 8
  ret ptr %44

45:                                               ; preds = %39
  unreachable
}

; Function Attrs: mustprogress uwtable
define noundef ptr @_Z22grpc_channel_args_copyPK17grpc_channel_args(ptr noundef %0) #5 {
  %2 = alloca ptr, align 8
  store ptr %0, ptr %2, align 8, !tbaa !3
  %3 = load ptr, ptr %2, align 8, !tbaa !3
  %4 = call noundef ptr @_Z30grpc_channel_args_copy_and_addPK17grpc_channel_argsPK8grpc_argm(ptr noundef %3, ptr noundef null, i64 noundef 0)
  ret ptr %4
}

; Function Attrs: mustprogress uwtable
define noundef ptr @_Z23grpc_channel_args_unionPK17grpc_channel_argsS1_(ptr noundef %0, ptr noundef %1) #5 {
  %3 = alloca ptr, align 8
  %4 = alloca ptr, align 8
  %5 = alloca ptr, align 8
  %6 = alloca i64, align 8
  %7 = alloca ptr, align 8
  %8 = alloca i64, align 8
  %9 = alloca i64, align 8
  %10 = alloca i64, align 8
  %11 = alloca ptr, align 8
  %12 = alloca ptr, align 8
  store ptr %0, ptr %4, align 8, !tbaa !3
  store ptr %1, ptr %5, align 8, !tbaa !3
  %13 = load ptr, ptr %4, align 8, !tbaa !3
  %14 = icmp eq ptr %13, null
  br i1 %14, label %15, label %18

15:                                               ; preds = %2
  %16 = load ptr, ptr %5, align 8, !tbaa !3
  %17 = call noundef ptr @_Z22grpc_channel_args_copyPK17grpc_channel_args(ptr noundef %16)
  store ptr %17, ptr %3, align 8
  br label %97

18:                                               ; preds = %2
  %19 = load ptr, ptr %5, align 8, !tbaa !3
  %20 = icmp eq ptr %19, null
  br i1 %20, label %21, label %24

21:                                               ; preds = %18
  %22 = load ptr, ptr %4, align 8, !tbaa !3
  %23 = call noundef ptr @_Z22grpc_channel_args_copyPK17grpc_channel_args(ptr noundef %22)
  store ptr %23, ptr %3, align 8
  br label %97

24:                                               ; preds = %18
  call void @llvm.lifetime.start.p0(i64 8, ptr %6) #3
  %25 = load ptr, ptr %4, align 8, !tbaa !3
  %26 = getelementptr inbounds nuw %struct.grpc_channel_args, ptr %25, i32 0, i32 0
  %27 = load i64, ptr %26, align 8, !tbaa !48
  %28 = load ptr, ptr %5, align 8, !tbaa !3
  %29 = getelementptr inbounds nuw %struct.grpc_channel_args, ptr %28, i32 0, i32 0
  %30 = load i64, ptr %29, align 8, !tbaa !48
  %31 = add i64 %27, %30
  store i64 %31, ptr %6, align 8, !tbaa !23
  call void @llvm.lifetime.start.p0(i64 8, ptr %7) #3
  %32 = load i64, ptr %6, align 8, !tbaa !23
  %33 = mul i64 32, %32
  %34 = call ptr @gpr_malloc(i64 noundef %33)
  store ptr %34, ptr %7, align 8, !tbaa !3
  call void @llvm.lifetime.start.p0(i64 8, ptr %8) #3
  store i64 0, ptr %8, align 8, !tbaa !23
  br label %35

35:                                               ; preds = %51, %24
  %36 = load i64, ptr %8, align 8, !tbaa !23
  %37 = load ptr, ptr %4, align 8, !tbaa !3
  %38 = getelementptr inbounds nuw %struct.grpc_channel_args, ptr %37, i32 0, i32 0
  %39 = load i64, ptr %38, align 8, !tbaa !48
  %40 = icmp ult i64 %36, %39
  br i1 %40, label %42, label %41

41:                                               ; preds = %35
  call void @llvm.lifetime.end.p0(i64 8, ptr %8) #3
  br label %54

42:                                               ; preds = %35
  %43 = load ptr, ptr %4, align 8, !tbaa !3
  %44 = getelementptr inbounds nuw %struct.grpc_channel_args, ptr %43, i32 0, i32 1
  %45 = load ptr, ptr %44, align 8, !tbaa !50
  %46 = load i64, ptr %8, align 8, !tbaa !23
  %47 = getelementptr inbounds nuw %struct.grpc_arg, ptr %45, i64 %46
  %48 = load ptr, ptr %7, align 8, !tbaa !3
  %49 = load i64, ptr %8, align 8, !tbaa !23
  %50 = getelementptr inbounds nuw %struct.grpc_arg, ptr %48, i64 %49
  call void @llvm.memcpy.p0.p0.i64(ptr align 8 %50, ptr align 8 %47, i64 32, i1 false), !tbaa.struct !51
  br label %51

51:                                               ; preds = %42
  %52 = load i64, ptr %8, align 8, !tbaa !23
  %53 = add i64 %52, 1
  store i64 %53, ptr %8, align 8, !tbaa !23
  br label %35, !llvm.loop !134

54:                                               ; preds = %41
  call void @llvm.lifetime.start.p0(i64 8, ptr %9) #3
  %55 = load ptr, ptr %4, align 8, !tbaa !3
  %56 = getelementptr inbounds nuw %struct.grpc_channel_args, ptr %55, i32 0, i32 0
  %57 = load i64, ptr %56, align 8, !tbaa !48
  store i64 %57, ptr %9, align 8, !tbaa !23
  call void @llvm.lifetime.start.p0(i64 8, ptr %10) #3
  store i64 0, ptr %10, align 8, !tbaa !23
  br label %58

58:                                               ; preds = %88, %54
  %59 = load i64, ptr %10, align 8, !tbaa !23
  %60 = load ptr, ptr %5, align 8, !tbaa !3
  %61 = getelementptr inbounds nuw %struct.grpc_channel_args, ptr %60, i32 0, i32 0
  %62 = load i64, ptr %61, align 8, !tbaa !48
  %63 = icmp ult i64 %59, %62
  br i1 %63, label %65, label %64

64:                                               ; preds = %58
  call void @llvm.lifetime.end.p0(i64 8, ptr %10) #3
  br label %91

65:                                               ; preds = %58
  call void @llvm.lifetime.start.p0(i64 8, ptr %11) #3
  %66 = load ptr, ptr %5, align 8, !tbaa !3
  %67 = getelementptr inbounds nuw %struct.grpc_channel_args, ptr %66, i32 0, i32 1
  %68 = load ptr, ptr %67, align 8, !tbaa !50
  %69 = load i64, ptr %10, align 8, !tbaa !23
  %70 = getelementptr inbounds nuw %struct.grpc_arg, ptr %68, i64 %69
  %71 = getelementptr inbounds nuw %struct.grpc_arg, ptr %70, i32 0, i32 1
  %72 = load ptr, ptr %71, align 8, !tbaa !45
  store ptr %72, ptr %11, align 8, !tbaa !25
  %73 = load ptr, ptr %4, align 8, !tbaa !3
  %74 = load ptr, ptr %11, align 8, !tbaa !25
  %75 = call noundef ptr @_Z22grpc_channel_args_findPK17grpc_channel_argsPKc(ptr noundef %73, ptr noundef %74)
  %76 = icmp eq ptr %75, null
  br i1 %76, label %77, label %87

77:                                               ; preds = %65
  %78 = load ptr, ptr %5, align 8, !tbaa !3
  %79 = getelementptr inbounds nuw %struct.grpc_channel_args, ptr %78, i32 0, i32 1
  %80 = load ptr, ptr %79, align 8, !tbaa !50
  %81 = load i64, ptr %10, align 8, !tbaa !23
  %82 = getelementptr inbounds nuw %struct.grpc_arg, ptr %80, i64 %81
  %83 = load ptr, ptr %7, align 8, !tbaa !3
  %84 = load i64, ptr %9, align 8, !tbaa !23
  %85 = add i64 %84, 1
  store i64 %85, ptr %9, align 8, !tbaa !23
  %86 = getelementptr inbounds nuw %struct.grpc_arg, ptr %83, i64 %84
  call void @llvm.memcpy.p0.p0.i64(ptr align 8 %86, ptr align 8 %82, i64 32, i1 false), !tbaa.struct !51
  br label %87

87:                                               ; preds = %77, %65
  call void @llvm.lifetime.end.p0(i64 8, ptr %11) #3
  br label %88

88:                                               ; preds = %87
  %89 = load i64, ptr %10, align 8, !tbaa !23
  %90 = add i64 %89, 1
  store i64 %90, ptr %10, align 8, !tbaa !23
  br label %58, !llvm.loop !135

91:                                               ; preds = %64
  call void @llvm.lifetime.start.p0(i64 8, ptr %12) #3
  %92 = load ptr, ptr %7, align 8, !tbaa !3
  %93 = load i64, ptr %9, align 8, !tbaa !23
  %94 = call noundef ptr @_Z30grpc_channel_args_copy_and_addPK17grpc_channel_argsPK8grpc_argm(ptr noundef null, ptr noundef %92, i64 noundef %93)
  store ptr %94, ptr %12, align 8, !tbaa !3
  %95 = load ptr, ptr %7, align 8, !tbaa !3
  call void @gpr_free(ptr noundef %95)
  %96 = load ptr, ptr %12, align 8, !tbaa !3
  store ptr %96, ptr %3, align 8
  call void @llvm.lifetime.end.p0(i64 8, ptr %12) #3
  call void @llvm.lifetime.end.p0(i64 8, ptr %9) #3
  call void @llvm.lifetime.end.p0(i64 8, ptr %7) #3
  call void @llvm.lifetime.end.p0(i64 8, ptr %6) #3
  br label %97

97:                                               ; preds = %91, %21, %15
  %98 = load ptr, ptr %3, align 8
  ret ptr %98
}