; Function Attrs: mustprogress uwtable
define noundef ptr @_Z23grpc_channel_args_unionPK17grpc_channel_argsS1_(ptr noundef %0, ptr noundef %1) local_unnamed_addr #9 {
  %3 = icmp eq ptr %0, null
  br i1 %3, label %4, label %6

4:                                                ; preds = %2
  %5 = tail call noundef ptr @_Z41grpc_channel_args_copy_and_add_and_removePK17grpc_channel_argsPPKcmPK8grpc_argm(ptr noundef %1, ptr noundef null, i64 noundef 0, ptr noundef null, i64 noundef 0)
  br label %48

6:                                                ; preds = %2
  %7 = icmp eq ptr %1, null
  br i1 %7, label %8, label %10

8:                                                ; preds = %6
  %9 = tail call noundef ptr @_Z41grpc_channel_args_copy_and_add_and_removePK17grpc_channel_argsPPKcmPK8grpc_argm(ptr noundef nonnull %0, ptr noundef null, i64 noundef 0, ptr noundef null, i64 noundef 0)
  br label %48

10:                                               ; preds = %6
  %11 = load i64, ptr %0, align 8, !tbaa !51
  %12 = load i64, ptr %1, align 8, !tbaa !51
  %13 = add i64 %12, %11
  %14 = shl i64 %13, 5
  %15 = tail call ptr @gpr_malloc(i64 noundef %14)
  %16 = load i64, ptr %0, align 8, !tbaa !51
  %.not = icmp eq i64 %16, 0
  br i1 %.not, label %.preheader, label %.lr.ph

.lr.ph:                                           ; preds = %10
  %17 = getelementptr inbounds nuw i8, ptr %0, i64 8
  br label %21

.preheader:                                       ; preds = %21, %10
  %.lcssa = phi i64 [ 0, %10 ], [ %26, %21 ]
  %18 = load i64, ptr %1, align 8, !tbaa !51
  %.not41 = icmp eq i64 %18, 0
  br i1 %.not41, label %._crit_edge, label %.preheader.i.lr.ph

.preheader.i.lr.ph:                               ; preds = %.preheader
  %19 = getelementptr inbounds nuw i8, ptr %1, i64 8
  %20 = getelementptr inbounds nuw i8, ptr %0, i64 8
  br label %.preheader.i

21:                                               ; preds = %.lr.ph, %21
  %.03037 = phi i64 [ 0, %.lr.ph ], [ %25, %21 ]
  %22 = load ptr, ptr %17, align 8, !tbaa !53
  %23 = getelementptr inbounds nuw %struct.grpc_arg, ptr %22, i64 %.03037
  %24 = getelementptr inbounds nuw %struct.grpc_arg, ptr %15, i64 %.03037
  tail call void @llvm.memcpy.p0.p0.i64(ptr noundef nonnull align 8 dereferenceable(32) %24, ptr noundef nonnull align 8 dereferenceable(32) %23, i64 32, i1 false), !tbaa.struct !177
  %25 = add nuw i64 %.03037, 1
  %26 = load i64, ptr %0, align 8, !tbaa !51
  %27 = icmp ult i64 %25, %26
  br i1 %27, label %21, label %.preheader, !llvm.loop !178

._crit_edge:                                      ; preds = %_Z22grpc_channel_args_findPK17grpc_channel_argsPKc.exit, %.preheader
  %.032.lcssa = phi i64 [ %.lcssa, %.preheader ], [ %.1, %_Z22grpc_channel_args_findPK17grpc_channel_argsPKc.exit ]
  %28 = tail call noundef ptr @_Z41grpc_channel_args_copy_and_add_and_removePK17grpc_channel_argsPPKcmPK8grpc_argm(ptr noundef null, ptr noundef null, i64 noundef 0, ptr noundef readonly %15, i64 noundef %.032.lcssa)
  tail call void @gpr_free(ptr noundef %15)
  br label %48

.preheader.i:                                     ; preds = %.preheader.i.lr.ph, %_Z22grpc_channel_args_findPK17grpc_channel_argsPKc.exit
  %29 = phi i64 [ %18, %.preheader.i.lr.ph ], [ %45, %_Z22grpc_channel_args_findPK17grpc_channel_argsPKc.exit ]
  %.03139 = phi i64 [ 0, %.preheader.i.lr.ph ], [ %46, %_Z22grpc_channel_args_findPK17grpc_channel_argsPKc.exit ]
  %.03238 = phi i64 [ %.lcssa, %.preheader.i.lr.ph ], [ %.1, %_Z22grpc_channel_args_findPK17grpc_channel_argsPKc.exit ]
  %30 = load ptr, ptr %19, align 8, !tbaa !53
  %31 = getelementptr inbounds nuw %struct.grpc_arg, ptr %30, i64 %.03139, i32 1
  %32 = load ptr, ptr %31, align 8, !tbaa !40
  %33 = load i64, ptr %0, align 8, !tbaa !51
  %.not20.i = icmp eq i64 %33, 0
  br i1 %.not20.i, label %.loopexit, label %.lr.ph.i

.lr.ph.i:                                         ; preds = %.preheader.i
  %34 = load ptr, ptr %20, align 8, !tbaa !53
  br label %37

35:                                               ; preds = %37
  %36 = add nuw i64 %.01017.i, 1
  %exitcond.not.i = icmp eq i64 %36, %33
  br i1 %exitcond.not.i, label %.loopexit, label %37, !llvm.loop !179

37:                                               ; preds = %35, %.lr.ph.i
  %.01017.i = phi i64 [ 0, %.lr.ph.i ], [ %36, %35 ]
  %38 = getelementptr inbounds nuw %struct.grpc_arg, ptr %34, i64 %.01017.i, i32 1
  %39 = load ptr, ptr %38, align 8, !tbaa !40
  %40 = tail call i32 @strcmp(ptr noundef nonnull dereferenceable(1) %39, ptr noundef nonnull readonly dereferenceable(1) %32) #44
  %41 = icmp eq i32 %40, 0
  br i1 %41, label %_Z22grpc_channel_args_findPK17grpc_channel_argsPKc.exit, label %35

.loopexit:                                        ; preds = %35, %.preheader.i
  %42 = getelementptr inbounds nuw %struct.grpc_arg, ptr %30, i64 %.03139
  %43 = add i64 %.03238, 1
  %44 = getelementptr inbounds nuw %struct.grpc_arg, ptr %15, i64 %.03238
  tail call void @llvm.memcpy.p0.p0.i64(ptr noundef nonnull align 8 dereferenceable(32) %44, ptr noundef nonnull align 8 dereferenceable(32) %42, i64 32, i1 false), !tbaa.struct !177
  %.pre = load i64, ptr %1, align 8, !tbaa !51
  br label %_Z22grpc_channel_args_findPK17grpc_channel_argsPKc.exit

_Z22grpc_channel_args_findPK17grpc_channel_argsPKc.exit: ; preds = %37, %.loopexit
  %45 = phi i64 [ %.pre, %.loopexit ], [ %29, %37 ]
  %.1 = phi i64 [ %43, %.loopexit ], [ %.03238, %37 ]
  %46 = add nuw i64 %.03139, 1
  %47 = icmp ult i64 %46, %45
  br i1 %47, label %.preheader.i, label %._crit_edge, !llvm.loop !180

48:                                               ; preds = %._crit_edge, %8, %4
  %.0 = phi ptr [ %5, %4 ], [ %9, %8 ], [ %28, %._crit_edge ]
  ret ptr %.0
}